target datalayout = "e-m:e-p270:32:32-p271:32:32-p272:64:64-i64:64-i128:128-f80:128-n8:16:32:64-S128"
target triple = "x86_64-unknown-linux-gnu"

%"class.proxygen::HeaderTable" = type { ptr, i32, i32, %"class.std::vector", i32, i32, i32, i8, %"class.folly::F14FastMap" }
%"class.std::vector" = type { %"struct.std::_Vector_base" }
%"struct.std::_Vector_base" = type { %"struct.std::_Vector_base<proxygen::HPACKHeader, std::allocator<proxygen::HPACKHeader>>::_Vector_impl" }
%"struct.std::_Vector_base<proxygen::HPACKHeader, std::allocator<proxygen::HPACKHeader>>::_Vector_impl" = type { %"struct.std::_Vector_base<proxygen::HPACKHeader, std::allocator<proxygen::HPACKHeader>>::_Vector_impl_data" }
%"struct.std::_Vector_base<proxygen::HPACKHeader, std::allocator<proxygen::HPACKHeader>>::_Vector_impl_data" = type { ptr, ptr, ptr }
%"class.folly::F14FastMap" = type { %"class.folly::f14::detail::F14VectorMapImpl" }
%"class.folly::f14::detail::F14VectorMapImpl" = type { %"class.folly::f14::detail::F14BasicMap" }
%"class.folly::f14::detail::F14BasicMap" = type { %"class.folly::f14::detail::F14Table" }
%"class.folly::f14::detail::F14Table" = type { %"class.folly::f14::detail::VectorContainerPolicy", ptr, %"struct.folly::f14::detail::SizeAndChunkShiftAndPackedBegin" }
%"class.folly::f14::detail::VectorContainerPolicy" = type { ptr }
%"struct.folly::f14::detail::SizeAndChunkShiftAndPackedBegin" = type { %"struct.folly::f14::detail::PackedSizeAndChunkShift" }
%"struct.folly::f14::detail::PackedSizeAndChunkShift" = type { i64 }

; Function Attrs: mustprogress nounwind uwtable
define linkonce_odr void @_ZN5folly3f146detail8F14TableINS1_21VectorContainerPolicyIN8proxygen15HPACKHeaderNameENSt7__cxx114listIjSaIjEEEvvvSt17integral_constantIbLb1EEEEE5clearEv(ptr noundef nonnull align 8 dereferenceable(24) %this) #5 comdat align 2 {
entry:
  %this.addr = alloca ptr, align 8
  store ptr %this, ptr %this.addr, align 8
  %this1 = load ptr, ptr %this.addr, align 8
  call void @_ZN5folly3f146detail8F14TableINS1_21VectorContainerPolicyIN8proxygen15HPACKHeaderNameENSt7__cxx114listIjSaIjEEEvvvSt17integral_constantIbLb1EEEEE9clearImplILb0EEEvv(ptr noundef nonnull align 8 dereferenceable(24) %this1) #3
  ret void
}

; Function Attrs: mustprogress nounwind uwtable
define linkonce_odr void @_ZN5folly3f146detail11F14BasicMapINS1_21VectorContainerPolicyIN8proxygen15HPACKHeaderNameENSt7__cxx114listIjSaIjEEEvvvSt17integral_constantIbLb1EEEEE5clearEv(ptr noundef nonnull align 8 dereferenceable(24) %this) #5 comdat align 2 {
entry:
  %this.addr = alloca ptr, align 8
  store ptr %this, ptr %this.addr, align 8
  %this1 = load ptr, ptr %this.addr, align 8
  %table_ = getelementptr inbounds %"class.folly::f14::detail::F14BasicMap", ptr %this1, i32 0, i32 0
  call void @_ZN5folly3f146detail8F14TableINS1_21VectorContainerPolicyIN8proxygen15HPACKHeaderNameENSt7__cxx114listIjSaIjEEEvvvSt17integral_constantIbLb1EEEEE5clearEv(ptr noundef nonnull align 8 dereferenceable(24) %table_) #3
  ret void
}

; Function Attrs: mustprogress nounwind uwtable
define void @_ZN8proxygen11HeaderTable5resetEv(ptr noundef nonnull align 8 dereferenceable(80) %this) #5 align 2 {
entry:
  %this.addr = alloca ptr, align 8
  store ptr %this, ptr %this.addr, align 8
  %this1 = load ptr, ptr %this.addr, align 8
  %names_ = getelementptr inbounds %"class.proxygen::HeaderTable", ptr %this1, i32 0, i32 8
  call void @_ZN5folly3f146detail11F14BasicMapINS1_21VectorContainerPolicyIN8proxygen15HPACKHeaderNameENSt7__cxx114listIjSaIjEEEvvvSt17integral_constantIbLb1EEEEE5clearEv(ptr noundef nonnull align 8 dereferenceable(24) %names_) #3
  %bytes_ = getelementptr inbounds %"class.proxygen::HeaderTable", ptr %this1, i32 0, i32 2
  store i32 0, ptr %bytes_, align 4
  %size_ = getelementptr inbounds %"class.proxygen::HeaderTable", ptr %this1, i32 0, i32 4
  store i32 0, ptr %size_, align 8
  ret void
}