; Function Attrs: mustprogress nounwind uwtable
define void @_ZN8proxygen11HeaderTable5resetEv(ptr noundef nonnull align 8 dereferenceable(80) %this) local_unnamed_addr #5 align 2 {
entry:
  %names_ = getelementptr inbounds i8, ptr %this, i64 56
  tail call void @_ZN5folly3f146detail8F14TableINS1_21VectorContainerPolicyIN8proxygen15HPACKHeaderNameENSt7__cxx114listIjSaIjEEEvvvSt17integral_constantIbLb1EEEEE9clearImplILb0EEEvv(ptr noundef nonnull align 8 dereferenceable(24) %names_) #28
  %bytes_ = getelementptr inbounds i8, ptr %this, i64 12
  store i32 0, ptr %bytes_, align 4
  %size_ = getelementptr inbounds i8, ptr %this, i64 40
  store i32 0, ptr %size_, align 8
  ret void
}